; Function Attrs: nounwind uwtable
define hidden i32 @mbedtls_ssl_close_notify(ptr noundef %0) local_unnamed_addr #0 {
  %2 = icmp eq ptr %0, null
  br i1 %2, label %13, label %3

3:                                                ; preds = %1
  %4 = load ptr, ptr %0, align 8, !tbaa !18
  %5 = icmp eq ptr %4, null
  br i1 %5, label %13, label %6

6:                                                ; preds = %3
  tail call void (ptr, i32, ptr, i32, ptr, ...) @mbedtls_debug_print_msg(ptr noundef nonnull %0, i32 noundef 2, ptr noundef nonnull @.str, i32 noundef 6196, ptr noundef nonnull @.str.142) #19
  %7 = getelementptr i8, ptr %0, i64 8
  %.val = load i32, ptr %7, align 8, !tbaa !74
  %8 = icmp slt i32 %.val, 27
  br i1 %8, label %12, label %9

9:                                                ; preds = %6
  %10 = tail call i32 @mbedtls_ssl_send_alert_message(ptr noundef nonnull %0, i8 noundef zeroext 1, i8 noundef zeroext 0)
  %.not11 = icmp eq i32 %10, 0
  br i1 %.not11, label %12, label %11

11:                                               ; preds = %9
  tail call void @mbedtls_debug_print_ret(ptr noundef nonnull %0, i32 noundef 1, ptr noundef nonnull @.str, i32 noundef 6202, ptr noundef nonnull @.str.143, i32 noundef %10) #19
  br label %13

12:                                               ; preds = %9, %6
  tail call void (ptr, i32, ptr, i32, ptr, ...) @mbedtls_debug_print_msg(ptr noundef nonnull %0, i32 noundef 2, ptr noundef nonnull @.str, i32 noundef 6207, ptr noundef nonnull @.str.144) #19
  br label %13

13:                                               ; preds = %1, %3, %12, %11
  %.0 = phi i32 [ %10, %11 ], [ 0, %12 ], [ -28928, %3 ], [ -28928, %1 ]
  ret i32 %.0
}